target datalayout = "e-m:e-p270:32:32-p271:32:32-p272:64:64-i64:64-i128:128-f80:128-n8:16:32:64-S128"
target triple = "x86_64-pc-linux-gnu"

%struct.rb_data_type_struct = type { ptr, %struct.anon, ptr, ptr, i64 }
%struct.anon = type { ptr, ptr, ptr, ptr, [1 x ptr] }
%struct.ComplexDateData = type { i32, i32, i64, float, i32, i32, i32, i32, i64 }

@d_lite_type = internal constant %struct.rb_data_type_struct { ptr @.str.14, %struct.anon { ptr @d_lite_gc_mark, ptr inttoptr (i64 -1 to ptr), ptr @d_lite_memsize, ptr null, [1 x ptr] zeroinitializer }, ptr null, ptr null, i64 289 }, align 8
@.str.346 = private unnamed_addr constant [7 x i8] c"+00:00\00", align 1
@.str.347 = private unnamed_addr constant [12 x i8] c"%c%02d:%02d\00", align 1

; Function Attrs: inlinehint nounwind sspstrong uwtable
define internal i64 @rbimpl_strlen(ptr noundef nonnull %0) #3 {
  %2 = alloca ptr, align 8
  store ptr %0, ptr %2, align 8, !tbaa !12
  %3 = load ptr, ptr %2, align 8, !tbaa !12
  %4 = call i64 @strlen(ptr noundef %3) #22
  ret i64 %4
}

; Function Attrs: nounwind sspstrong uwtable
define internal i64 @of2str(i32 noundef %0) #0 {
  %2 = alloca i32, align 4
  %3 = alloca i32, align 4
  %4 = alloca i32, align 4
  %5 = alloca i32, align 4
  %6 = alloca i32, align 4
  store i32 %0, ptr %2, align 4, !tbaa !19
  call void @llvm.lifetime.start.p0(i64 4, ptr %3) #23
  call void @llvm.lifetime.start.p0(i64 4, ptr %4) #23
  call void @llvm.lifetime.start.p0(i64 4, ptr %5) #23
  br label %7

7:                                                ; preds = %1
  call void @llvm.lifetime.start.p0(i64 4, ptr %6) #23
  %8 = load i32, ptr %2, align 4, !tbaa !19
  %9 = icmp slt i32 %8, 0
  %10 = select i1 %9, i32 45, i32 43
  store i32 %10, ptr %3, align 4, !tbaa !19
  %11 = load i32, ptr %2, align 4, !tbaa !19
  %12 = icmp slt i32 %11, 0
  br i1 %12, label %13, label %16

13:                                               ; preds = %7
  %14 = load i32, ptr %2, align 4, !tbaa !19
  %15 = sub nsw i32 0, %14
  br label %18

16:                                               ; preds = %7
  %17 = load i32, ptr %2, align 4, !tbaa !19
  br label %18

18:                                               ; preds = %16, %13
  %19 = phi i32 [ %15, %13 ], [ %17, %16 ]
  store i32 %19, ptr %6, align 4, !tbaa !19
  %20 = load i32, ptr %6, align 4, !tbaa !19
  %21 = sdiv i32 %20, 3600
  store i32 %21, ptr %4, align 4, !tbaa !19
  %22 = load i32, ptr %6, align 4, !tbaa !19
  %23 = srem i32 %22, 3600
  %24 = sdiv i32 %23, 60
  store i32 %24, ptr %5, align 4, !tbaa !19
  call void @llvm.lifetime.end.p0(i64 4, ptr %6) #23
  br label %25

25:                                               ; preds = %18
  br label %26

26:                                               ; preds = %25
  %27 = call nonnull ptr @rb_usascii_encoding()
  %28 = load i32, ptr %3, align 4, !tbaa !19
  %29 = load i32, ptr %4, align 4, !tbaa !19
  %30 = load i32, ptr %5, align 4, !tbaa !19
  %31 = call i64 (ptr, ptr, ...) @rb_enc_sprintf(ptr noundef %27, ptr noundef @.str.347, i32 noundef %28, i32 noundef %29, i32 noundef %30)
  call void @llvm.lifetime.end.p0(i64 4, ptr %5) #23
  call void @llvm.lifetime.end.p0(i64 4, ptr %4) #23
  call void @llvm.lifetime.end.p0(i64 4, ptr %3) #23
  ret i64 %31
}

; Function Attrs: inlinehint nounwind sspstrong uwtable
define internal i32 @m_of(ptr noundef %0) #3 {
  %2 = alloca i32, align 4
  %3 = alloca ptr, align 8
  store ptr %0, ptr %3, align 8, !tbaa !27
  %4 = load ptr, ptr %3, align 8, !tbaa !27
  %5 = load i32, ptr %4, align 8, !tbaa !38
  %6 = and i32 %5, 128
  %7 = icmp ne i32 %6, 0
  br i1 %7, label %9, label %8

8:                                                ; preds = %1
  store i32 0, ptr %2, align 4
  br label %14

9:                                                ; preds = %1
  %10 = load ptr, ptr %3, align 8, !tbaa !27
  call void @get_c_jd(ptr noundef %10)
  %11 = load ptr, ptr %3, align 8, !tbaa !27
  %12 = getelementptr inbounds nuw %struct.ComplexDateData, ptr %11, i32 0, i32 7
  %13 = load i32, ptr %12, align 8, !tbaa !38
  store i32 %13, ptr %2, align 4
  br label %14

14:                                               ; preds = %9, %8
  %15 = load i32, ptr %2, align 4
  ret i32 %15
}

; Function Attrs: inlinehint nounwind sspstrong uwtable
define internal i64 @rbimpl_usascii_str_new_cstr(ptr noundef nonnull %0) #3 {
  %2 = alloca ptr, align 8
  %3 = alloca i64, align 8
  store ptr %0, ptr %2, align 8, !tbaa !12
  call void @llvm.lifetime.start.p0(i64 8, ptr %3) #23
  %4 = load ptr, ptr %2, align 8, !tbaa !12
  %5 = call i64 @rbimpl_strlen(ptr noundef %4)
  store i64 %5, ptr %3, align 8, !tbaa !6
  %6 = load ptr, ptr %2, align 8, !tbaa !12
  %7 = load i64, ptr %3, align 8, !tbaa !6
  %8 = call i64 @rb_usascii_str_new_static(ptr noundef %6, i64 noundef %7)
  call void @llvm.lifetime.end.p0(i64 8, ptr %3) #23
  ret i64 %8
}

; Function Attrs: nounwind sspstrong uwtable
define internal i64 @m_zone(ptr noundef %0) #0 {
  %2 = alloca i64, align 8
  %3 = alloca ptr, align 8
  store ptr %0, ptr %3, align 8, !tbaa !27
  %4 = load ptr, ptr %3, align 8, !tbaa !27
  %5 = load i32, ptr %4, align 8, !tbaa !38
  %6 = and i32 %5, 128
  %7 = icmp ne i32 %6, 0
  br i1 %7, label %10, label %8

8:                                                ; preds = %1
  %9 = call i64 @rbimpl_usascii_str_new_cstr(ptr noundef @.str.346)
  store i64 %9, ptr %2, align 8
  br label %14

10:                                               ; preds = %1
  %11 = load ptr, ptr %3, align 8, !tbaa !27
  %12 = call i32 @m_of(ptr noundef %11)
  %13 = call i64 @of2str(i32 noundef %12)
  store i64 %13, ptr %2, align 8
  br label %14

14:                                               ; preds = %10, %8
  %15 = load i64, ptr %2, align 8
  ret i64 %15
}

; Function Attrs: nounwind sspstrong uwtable
define internal i64 @d_lite_zone(i64 noundef %0) #0 {
  %2 = alloca i64, align 8
  %3 = alloca ptr, align 8
  store i64 %0, ptr %2, align 8, !tbaa !6
  call void @llvm.lifetime.start.p0(i64 8, ptr %3) #23
  %4 = load i64, ptr %2, align 8, !tbaa !6
  %5 = call ptr @rb_check_typeddata(i64 noundef %4, ptr noundef @d_lite_type)
  store ptr %5, ptr %3, align 8, !tbaa !27
  %6 = load ptr, ptr %3, align 8, !tbaa !27
  %7 = call i64 @m_zone(ptr noundef %6)
  call void @llvm.lifetime.end.p0(i64 8, ptr %3) #23
  ret i64 %7
}