; Function Attrs: nounwind sspstrong uwtable
define internal i64 @d_lite_zone(i64 noundef %0) #0 {
  %2 = tail call ptr @rb_check_typeddata(i64 noundef %0, ptr noundef nonnull @d_lite_type) #21
  %3 = load i32, ptr %2, align 8, !tbaa !47
  %4 = and i32 %3, 128
  %.not.i = icmp eq i32 %4, 0
  br i1 %.not.i, label %5, label %m_of.exit.i

5:                                                ; preds = %1
  %6 = tail call i64 @rb_usascii_str_new_static(ptr noundef nonnull @.str.346, i64 noundef 6) #21
  br label %m_zone.exit

m_of.exit.i:                                      ; preds = %1
  tail call fastcc void @get_c_jd(ptr noundef nonnull %2)
  %7 = getelementptr inbounds nuw i8, ptr %2, i64 32
  %8 = load i32, ptr %7, align 8, !tbaa !47
  %9 = icmp slt i32 %8, 0
  %10 = select i1 %9, i32 45, i32 43
  %11 = tail call i32 @llvm.abs.i32(i32 %8, i1 true)
  %12 = udiv i32 %11, 3600
  %13 = urem i32 %11, 3600
  %.lhs.trunc.i.i = trunc nuw nsw i32 %13 to i16
  %14 = udiv i16 %.lhs.trunc.i.i, 60
  %.zext.i.i = zext nneg i16 %14 to i32
  %15 = tail call nonnull ptr @rb_usascii_encoding() #21
  %16 = tail call i64 (ptr, ptr, ...) @rb_enc_sprintf(ptr noundef nonnull %15, ptr noundef nonnull @.str.347, i32 noundef %10, i32 noundef %12, i32 noundef %.zext.i.i) #21
  br label %m_zone.exit

m_zone.exit:                                      ; preds = %5, %m_of.exit.i
  %.0.i = phi i64 [ %16, %m_of.exit.i ], [ %6, %5 ]
  ret i64 %.0.i
}